; Function Attrs: nounwind uwtable
define hidden i32 @jReadHeader(ptr noundef %0, i32 noundef %1) local_unnamed_addr #0 {
  %3 = getelementptr inbounds i8, ptr %0, i64 36
  %4 = load i32, ptr %3, align 4
  %5 = and i32 %4, -2
  %switch = icmp eq i32 %5, 200
  br i1 %switch, label %14, label %6

6:                                                ; preds = %2
  %7 = load ptr, ptr %0, align 8
  %8 = getelementptr inbounds i8, ptr %7, i64 40
  store i32 20, ptr %8, align 8
  %9 = load i32, ptr %3, align 4
  %10 = load ptr, ptr %0, align 8
  %11 = getelementptr inbounds i8, ptr %10, i64 44
  store i32 %9, ptr %11, align 4
  %12 = load ptr, ptr %0, align 8
  %13 = load ptr, ptr %12, align 8
  tail call void %13(ptr noundef nonnull %0) #3
  br label %14

14:                                               ; preds = %2, %6
  %15 = tail call i32 @jConsumeInput(ptr noundef nonnull %0)
  %cond = icmp eq i32 %15, 2
  br i1 %cond, label %16, label %23

16:                                               ; preds = %14
  %.not16 = icmp eq i32 %1, 0
  br i1 %.not16, label %22, label %17

17:                                               ; preds = %16
  %18 = load ptr, ptr %0, align 8
  %19 = getelementptr inbounds i8, ptr %18, i64 40
  store i32 51, ptr %19, align 8
  %20 = load ptr, ptr %0, align 8
  %21 = load ptr, ptr %20, align 8
  tail call void %21(ptr noundef nonnull %0) #3
  br label %22

22:                                               ; preds = %17, %16
  tail call void @jAbort(ptr noundef nonnull %0) #3
  br label %23

23:                                               ; preds = %14, %22
  ret i32 %15
}